target datalayout = "e-m:e-p270:32:32-p271:32:32-p272:64:64-i64:64-i128:128-f80:128-n8:16:32:64-S128"
target triple = "x86_64-pc-linux-gnu"

%struct.SDL_AtomicInt = type { i32 }
%struct.SDL_AudioDevice = type { ptr, ptr, %struct.SDL_AtomicInt, ptr, ptr, ptr, ptr, ptr, ptr, ptr, i32, ptr, %struct.SDL_AudioSpec, i32, ptr, %struct.SDL_AudioSpec, i32, i32, %struct.SDL_AtomicInt, %struct.SDL_AtomicInt, i8, i8, ptr, ptr, ptr, i32, ptr, i8, ptr, ptr }
%struct.SDL_AudioSpec = type { i32, i32, i32 }
%struct.SDL_PrivateAudioData = type { ptr, ptr }

@ALSA_snd_pcm_avail = internal global ptr null, align 8

; Function Attrs: nounwind uwtable
define internal ptr @ALSA_GetDeviceBuf(ptr noundef %0, ptr noundef %1) #0 {
  %3 = alloca ptr, align 8
  %4 = alloca ptr, align 8
  %5 = alloca ptr, align 8
  %6 = alloca i64, align 8
  %7 = alloca i32, align 4
  %8 = alloca i32, align 4
  %9 = alloca i32, align 4
  store ptr %0, ptr %4, align 8
  store ptr %1, ptr %5, align 8
  call void @llvm.lifetime.start.p0(i64 8, ptr %6) #7
  %10 = load ptr, ptr @ALSA_snd_pcm_avail, align 8
  %11 = load ptr, ptr %4, align 8
  %12 = getelementptr inbounds nuw %struct.SDL_AudioDevice, ptr %11, i32 0, i32 28
  %13 = load ptr, ptr %12, align 8
  %14 = getelementptr inbounds nuw %struct.SDL_PrivateAudioData, ptr %13, i32 0, i32 0
  %15 = load ptr, ptr %14, align 8
  %16 = call i64 %10(ptr noundef %15)
  store i64 %16, ptr %6, align 8
  %17 = load i64, ptr %6, align 8
  %18 = icmp sle i64 %17, 0
  br i1 %18, label %19, label %32

19:                                               ; preds = %2
  call void @SDL_Delay_REAL(i32 noundef 1)
  %20 = load ptr, ptr @ALSA_snd_pcm_avail, align 8
  %21 = load ptr, ptr %4, align 8
  %22 = getelementptr inbounds nuw %struct.SDL_AudioDevice, ptr %21, i32 0, i32 28
  %23 = load ptr, ptr %22, align 8
  %24 = getelementptr inbounds nuw %struct.SDL_PrivateAudioData, ptr %23, i32 0, i32 0
  %25 = load ptr, ptr %24, align 8
  %26 = call i64 %20(ptr noundef %25)
  store i64 %26, ptr %6, align 8
  %27 = load i64, ptr %6, align 8
  %28 = icmp sle i64 %27, 0
  br i1 %28, label %29, label %31

29:                                               ; preds = %19
  %30 = load ptr, ptr %5, align 8
  store i32 0, ptr %30, align 4
  store ptr null, ptr %3, align 8
  store i32 1, ptr %7, align 4
  br label %72

31:                                               ; preds = %19
  br label %32

32:                                               ; preds = %31, %2
  call void @llvm.lifetime.start.p0(i64 4, ptr %8) #7
  %33 = load ptr, ptr %4, align 8
  %34 = getelementptr inbounds nuw %struct.SDL_AudioDevice, ptr %33, i32 0, i32 16
  %35 = load i32, ptr %34, align 4
  %36 = sext i32 %35 to i64
  %37 = load i64, ptr %6, align 8
  %38 = icmp slt i64 %36, %37
  br i1 %38, label %39, label %44

39:                                               ; preds = %32
  %40 = load ptr, ptr %4, align 8
  %41 = getelementptr inbounds nuw %struct.SDL_AudioDevice, ptr %40, i32 0, i32 16
  %42 = load i32, ptr %41, align 4
  %43 = sext i32 %42 to i64
  br label %46

44:                                               ; preds = %32
  %45 = load i64, ptr %6, align 8
  br label %46

46:                                               ; preds = %44, %39
  %47 = phi i64 [ %43, %39 ], [ %45, %44 ]
  %48 = trunc i64 %47 to i32
  store i32 %48, ptr %8, align 4
  call void @llvm.lifetime.start.p0(i64 4, ptr %9) #7
  %49 = load i32, ptr %8, align 4
  %50 = load ptr, ptr %4, align 8
  %51 = getelementptr inbounds nuw %struct.SDL_AudioDevice, ptr %50, i32 0, i32 12
  %52 = getelementptr inbounds nuw %struct.SDL_AudioSpec, ptr %51, i32 0, i32 0
  %53 = load i32, ptr %52, align 8
  %54 = and i32 %53, 255
  %55 = udiv i32 %54, 8
  %56 = load ptr, ptr %4, align 8
  %57 = getelementptr inbounds nuw %struct.SDL_AudioDevice, ptr %56, i32 0, i32 12
  %58 = getelementptr inbounds nuw %struct.SDL_AudioSpec, ptr %57, i32 0, i32 1
  %59 = load i32, ptr %58, align 4
  %60 = mul i32 %55, %59
  %61 = mul i32 %49, %60
  store i32 %61, ptr %9, align 4
  br label %62

62:                                               ; preds = %46
  br label %63

63:                                               ; preds = %62
  br label %64

64:                                               ; preds = %63
  %65 = load i32, ptr %9, align 4
  %66 = load ptr, ptr %5, align 8
  store i32 %65, ptr %66, align 4
  %67 = load ptr, ptr %4, align 8
  %68 = getelementptr inbounds nuw %struct.SDL_AudioDevice, ptr %67, i32 0, i32 28
  %69 = load ptr, ptr %68, align 8
  %70 = getelementptr inbounds nuw %struct.SDL_PrivateAudioData, ptr %69, i32 0, i32 1
  %71 = load ptr, ptr %70, align 8
  store ptr %71, ptr %3, align 8
  store i32 1, ptr %7, align 4
  call void @llvm.lifetime.end.p0(i64 4, ptr %9) #7
  call void @llvm.lifetime.end.p0(i64 4, ptr %8) #7
  br label %72

72:                                               ; preds = %64, %29
  call void @llvm.lifetime.end.p0(i64 8, ptr %6) #7
  %73 = load ptr, ptr %3, align 8
  ret ptr %73
}