; Function Attrs: nounwind uwtable
define internal ptr @ALSA_GetDeviceBuf(ptr noundef readonly captures(none) %0, ptr noundef writeonly captures(none) initializes((0, 4)) %1) #0 {
  %3 = load ptr, ptr @ALSA_snd_pcm_avail, align 8
  %4 = getelementptr inbounds nuw i8, ptr %0, i64 200
  %5 = load ptr, ptr %4, align 8
  %6 = load ptr, ptr %5, align 8
  %7 = tail call i64 %3(ptr noundef %6) #8
  %8 = icmp slt i64 %7, 1
  br i1 %8, label %9, label %16

9:                                                ; preds = %2
  tail call void @SDL_Delay_REAL(i32 noundef 1) #8
  %10 = load ptr, ptr @ALSA_snd_pcm_avail, align 8
  %11 = load ptr, ptr %4, align 8
  %12 = load ptr, ptr %11, align 8
  %13 = tail call i64 %10(ptr noundef %12) #8
  %14 = icmp slt i64 %13, 1
  br i1 %14, label %15, label %16

15:                                               ; preds = %9
  store i32 0, ptr %1, align 4
  br label %33

16:                                               ; preds = %9, %2
  %.015 = phi i64 [ %13, %9 ], [ %7, %2 ]
  %17 = getelementptr inbounds nuw i8, ptr %0, i64 132
  %18 = load i32, ptr %17, align 4
  %19 = sext i32 %18 to i64
  %20 = tail call i64 @llvm.smin.i64(i64 %.015, i64 %19)
  %21 = trunc nsw i64 %20 to i32
  %22 = getelementptr inbounds nuw i8, ptr %0, i64 96
  %23 = load i32, ptr %22, align 8
  %24 = lshr i32 %23, 3
  %25 = and i32 %24, 31
  %26 = getelementptr inbounds nuw i8, ptr %0, i64 100
  %27 = load i32, ptr %26, align 4
  %28 = mul i32 %25, %27
  %29 = mul i32 %28, %21
  store i32 %29, ptr %1, align 4
  %30 = load ptr, ptr %4, align 8
  %31 = getelementptr inbounds nuw i8, ptr %30, i64 8
  %32 = load ptr, ptr %31, align 8
  br label %33

33:                                               ; preds = %16, %15
  %.0 = phi ptr [ null, %15 ], [ %32, %16 ]
  ret ptr %.0
}